; Function Attrs: mustprogress uwtable
define hidden void @_Z22proj_context_log_debugP6pj_ctxPKcz(ptr nocapture noundef readonly %0, ptr nocapture noundef readonly %1, ...) local_unnamed_addr #3 personality ptr @__gxx_personality_v0 {
  %3 = alloca [1 x %struct.__va_list_tag], align 16
  call void @llvm.va_start.p0(ptr nonnull %3)
  %4 = getelementptr inbounds i8, ptr %0, i64 36
  %5 = load i32, ptr %4, align 4
  %6 = icmp sgt i32 %5, -1
  %7 = getelementptr inbounds i8, ptr %0, i64 32
  %8 = load i32, ptr %7, align 8
  %9 = icmp ne i32 %8, 0
  %or.cond.i.not26.i = select i1 %9, i1 true, i1 %6
  %spec.select.i.i = call i32 @llvm.abs.i32(i32 %5, i1 true)
  %10 = icmp ugt i32 %spec.select.i.i, 1
  %or.cond.i = select i1 %or.cond.i.not26.i, i1 %10, i1 false
  br i1 %or.cond.i, label %11, label %_ZL7pj_vlogP6pj_ctxiPK8PJconstsPKcP13__va_list_tag.exit

11:                                               ; preds = %2
  %12 = call noalias dereferenceable_or_null(100000) ptr @malloc(i64 noundef 100000) #11
  %13 = icmp eq ptr %12, null
  br i1 %13, label %_ZL7pj_vlogP6pj_ctxiPK8PJconstsPKcP13__va_list_tag.exit, label %14

14:                                               ; preds = %11
  %15 = call i32 @vsnprintf(ptr noundef nonnull %12, i64 noundef 100000, ptr noundef %1, ptr noundef nonnull %3) #12
  %16 = getelementptr inbounds i8, ptr %12, i64 99999
  store i8 0, ptr %16, align 1
  %17 = getelementptr inbounds i8, ptr %0, i64 48
  %18 = load ptr, ptr %17, align 8
  %19 = getelementptr inbounds i8, ptr %0, i64 56
  %20 = load ptr, ptr %19, align 8
  call void %18(ptr noundef %20, i32 noundef 2, ptr noundef nonnull %12)
  call void @free(ptr noundef nonnull %12) #12
  br label %_ZL7pj_vlogP6pj_ctxiPK8PJconstsPKcP13__va_list_tag.exit

_ZL7pj_vlogP6pj_ctxiPK8PJconstsPKcP13__va_list_tag.exit: ; preds = %2, %11, %14
  call void @llvm.va_end.p0(ptr nonnull %3)
  ret void
}